target datalayout = "e-m:e-p270:32:32-p271:32:32-p272:64:64-i64:64-i128:128-f80:128-n8:16:32:64-S128"
target triple = "x86_64-pc-linux-gnu"

%struct._zend_compiler_globals = type { %struct._zend_stack, ptr, ptr, i32, ptr, ptr, ptr, ptr, i8, i8, i8, i8, i8, %struct._zend_llist, ptr, i8, i8, i8, i8, ptr, i32, i32, %struct._zend_oparray_context, %struct._zend_file_context, ptr, %struct._zend_array, ptr, i64, i8, i8, i8, ptr, ptr, %struct._zend_stack, ptr, i32, ptr, ptr, i64, i64, ptr, ptr, ptr, ptr, i32, %struct._zend_stack }
%struct._zend_llist = type { ptr, ptr, i64, i64, ptr, i8, ptr }
%struct._zend_oparray_context = type { i32, i32, i32, i32, i32, i32, i32, ptr, ptr, i8 }
%struct._zend_file_context = type { %struct._zend_declarables, ptr, i8, i8, ptr, ptr, ptr, %struct._zend_array }
%struct._zend_declarables = type { i64 }
%struct._zend_array = type { %struct._zend_refcounted_h, %union.anon.0, i32, %union.anon.1, i32, i32, i32, i32, i64, ptr }
%struct._zend_refcounted_h = type { i32, %union.anon }
%union.anon = type { i32 }
%union.anon.0 = type { i32 }
%union.anon.1 = type { ptr }
%struct._zend_stack = type { i32, i32, i32, ptr }
%struct._zend_executor_globals = type { %struct._zval_struct, %struct._zval_struct, [32 x ptr], ptr, ptr, %struct._zend_array, %struct._zend_array, ptr, i32, i32, ptr, ptr, ptr, ptr, ptr, ptr, i64, ptr, ptr, i32, i32, i64, i32, i32, i32, i8, i8, %struct.zend_atomic_bool_s, %struct.zend_atomic_bool_s, ptr, i64, ptr, ptr, %struct._zend_array, %struct._zend_array, i32, i8, %struct._zval_struct, %struct._zval_struct, %struct._zend_stack, %struct._zend_stack, %struct._zend_stack, ptr, i32, i32, i64, ptr, ptr, ptr, %struct._zend_objects_store, ptr, ptr, ptr, [3 x %struct._zend_op], ptr, i8, i8, i64, i32, i32, ptr, [16 x %struct._HashTableIterator], ptr, %union._zend_function, %struct._zend_op, %struct._zend_array, i64, %struct.zend_get_gc_buffer, ptr, ptr, ptr, i64, i8, i32, ptr, ptr, i64, %struct._zend_call_stack, i64, i64, [6 x ptr] }
%struct.zend_atomic_bool_s = type { i8 }
%struct._zval_struct = type { %union._zend_value, %union.anon.3, %union.anon.6 }
%union._zend_value = type { i64 }
%union.anon.3 = type { i32 }
%union.anon.6 = type { i32 }
%struct._zend_objects_store = type { ptr, i32, i32, i32 }
%struct._HashTableIterator = type { ptr, i32, i32 }
%union._zend_function = type { %struct._zend_op_array }
%struct._zend_op_array = type { i8, [3 x i8], i32, ptr, ptr, ptr, i32, i32, ptr, ptr, ptr, ptr, i32, i32, i32, i32, ptr, ptr, ptr, ptr, ptr, i32, i32, ptr, ptr, ptr, i32, i32, i32, i32, ptr, ptr, [6 x ptr] }
%struct._zend_op = type { ptr, %union._znode_op, %union._znode_op, %union._znode_op, i32, i32, i8, i8, i8, i8 }
%union._znode_op = type { i32 }
%struct.zend_get_gc_buffer = type { ptr, ptr, ptr }
%struct._zend_call_stack = type { ptr, i64 }
%struct._zend_ast_list = type { i16, i16, i32, i32, [1 x ptr] }
%struct._znode = type { i8, i8, %union.anon.14 }
%union.anon.14 = type { %struct._zval_struct }

@compiler_globals = global %struct._zend_compiler_globals zeroinitializer, align 8
@executor_globals = global %struct._zend_executor_globals zeroinitializer, align 8
@.str.282 = private unnamed_addr constant [147 x i8] c"Maximum call stack size of %zu bytes (zend.max_allowed_stack_size - zend.reserved_stack_size) reached during compilation. Try splitting expression\00", align 1

; Function Attrs: nounwind uwtable
define internal void @zend_stack_limit_error() #0 {
  %1 = load ptr, ptr getelementptr inbounds (%struct._zend_executor_globals, ptr @executor_globals, i32 0, i32 31), align 8
  %2 = ptrtoint ptr %1 to i64
  %3 = load ptr, ptr getelementptr inbounds (%struct._zend_executor_globals, ptr @executor_globals, i32 0, i32 32), align 8
  %4 = ptrtoint ptr %3 to i64
  %5 = sub i64 %2, %4
  call void (i32, ptr, ...) @zend_error_noreturn(i32 noundef 64, ptr noundef @.str.282, i64 noundef %5) #14
  unreachable
}

; Function Attrs: nounwind uwtable
define internal i32 @zend_short_circuiting_checkpoint() #0 {
  %1 = call i32 @zend_stack_count(ptr noundef getelementptr inbounds (%struct._zend_compiler_globals, ptr @compiler_globals, i32 0, i32 45))
  ret i32 %1
}

; Function Attrs: nounwind uwtable
define internal void @zend_check_stack_limit() #0 {
  %1 = alloca ptr, align 8
  %2 = load ptr, ptr getelementptr inbounds (%struct._zend_executor_globals, ptr @executor_globals, i32 0, i32 32), align 8
  store ptr %2, ptr %1, align 8
  %3 = call ptr @llvm.frameaddress.p0(i32 0)
  %4 = ptrtoint ptr %3 to i64
  %5 = load ptr, ptr %1, align 8
  %6 = ptrtoint ptr %5 to i64
  %7 = icmp ule i64 %4, %6
  %8 = xor i1 %7, true
  %9 = xor i1 %8, true
  %10 = zext i1 %9 to i32
  %11 = sext i32 %10 to i64
  %12 = icmp ne i64 %11, 0
  br i1 %12, label %13, label %14

13:                                               ; preds = %0
  call void @zend_stack_limit_error()
  br label %14

14:                                               ; preds = %13, %0
  ret void
}

; Function Attrs: nounwind uwtable
define internal void @zend_compile_expr(ptr noundef %0, ptr noundef %1) #0 {
  %3 = alloca ptr, align 8
  %4 = alloca ptr, align 8
  %5 = alloca i32, align 4
  store ptr %0, ptr %3, align 8
  store ptr %1, ptr %4, align 8
  call void @zend_check_stack_limit()
  %6 = call i32 @zend_short_circuiting_checkpoint()
  store i32 %6, ptr %5, align 4
  %7 = load ptr, ptr %3, align 8
  %8 = load ptr, ptr %4, align 8
  call void @zend_compile_expr_inner(ptr noundef %7, ptr noundef %8)
  %9 = load i32, ptr %5, align 4
  %10 = load ptr, ptr %3, align 8
  %11 = load ptr, ptr %4, align 8
  call void @zend_short_circuiting_commit(i32 noundef %9, ptr noundef %10, ptr noundef %11)
  ret void
}

; Function Attrs: nounwind uwtable
define internal i32 @zend_compile_func_is_scalar(ptr noundef %0, ptr noundef %1) #0 {
  %3 = alloca i32, align 4
  %4 = alloca ptr, align 8
  %5 = alloca ptr, align 8
  %6 = alloca %struct._znode, align 8
  %7 = alloca ptr, align 8
  store ptr %0, ptr %4, align 8
  store ptr %1, ptr %5, align 8
  %8 = load ptr, ptr %5, align 8
  %9 = getelementptr inbounds %struct._zend_ast_list, ptr %8, i32 0, i32 3
  %10 = load i32, ptr %9, align 8
  %11 = icmp ne i32 %10, 1
  br i1 %11, label %12, label %13

12:                                               ; preds = %2
  store i32 -1, ptr %3, align 4
  br label %22

13:                                               ; preds = %2
  %14 = load ptr, ptr %5, align 8
  %15 = getelementptr inbounds %struct._zend_ast_list, ptr %14, i32 0, i32 4
  %16 = getelementptr inbounds [1 x ptr], ptr %15, i64 0, i64 0
  %17 = load ptr, ptr %16, align 8
  call void @zend_compile_expr(ptr noundef %6, ptr noundef %17)
  %18 = load ptr, ptr %4, align 8
  %19 = call ptr @zend_emit_op_tmp(ptr noundef %18, i8 noundef zeroext 123, ptr noundef %6, ptr noundef null)
  store ptr %19, ptr %7, align 8
  %20 = load ptr, ptr %7, align 8
  %21 = getelementptr inbounds %struct._zend_op, ptr %20, i32 0, i32 4
  store i32 124, ptr %21, align 4
  store i32 0, ptr %3, align 4
  br label %22

22:                                               ; preds = %13, %12
  %23 = load i32, ptr %3, align 4
  ret i32 %23
}