; Function Attrs: nounwind uwtable
define internal fastcc noundef i32 @zend_compile_func_is_scalar(ptr noundef %0, ptr nocapture noundef readonly %1) unnamed_addr #0 {
  %3 = alloca %struct._znode, align 8
  %4 = getelementptr inbounds i8, ptr %1, i64 8
  %5 = load i32, ptr %4, align 8
  %.not = icmp eq i32 %5, 1
  br i1 %.not, label %6, label %19

6:                                                ; preds = %2
  %7 = load ptr, ptr getelementptr inbounds (%struct._zend_executor_globals, ptr @executor_globals, i64 0, i32 32), align 8
  %8 = tail call ptr @llvm.frameaddress.p0(i32 0)
  %.not.i.i = icmp ugt ptr %8, %7
  br i1 %.not.i.i, label %zend_compile_expr.exit, label %9

9:                                                ; preds = %6
  %10 = load ptr, ptr getelementptr inbounds (%struct._zend_executor_globals, ptr @executor_globals, i64 0, i32 31), align 8
  %11 = ptrtoint ptr %10 to i64
  %12 = ptrtoint ptr %7 to i64
  %13 = sub i64 %11, %12
  tail call void (i32, ptr, ...) @zend_error_noreturn(i32 noundef 64, ptr noundef nonnull @.str.282, i64 noundef %13) #31
  unreachable

zend_compile_expr.exit:                           ; preds = %6
  %14 = getelementptr inbounds i8, ptr %1, i64 16
  %15 = load ptr, ptr %14, align 8
  %16 = tail call i32 @zend_stack_count(ptr noundef nonnull getelementptr inbounds (%struct._zend_compiler_globals, ptr @compiler_globals, i64 0, i32 45)) #30
  call fastcc void @zend_compile_expr_inner(ptr noundef nonnull %3, ptr noundef %15)
  call fastcc void @zend_short_circuiting_commit(i32 noundef %16, ptr noundef nonnull %3, ptr noundef %15)
  %17 = call fastcc ptr @zend_emit_op_tmp(ptr noundef %0, i8 noundef zeroext 123, ptr noundef nonnull %3, ptr noundef null)
  %18 = getelementptr inbounds i8, ptr %17, i64 20
  store i32 124, ptr %18, align 4
  br label %19

19:                                               ; preds = %2, %zend_compile_expr.exit
  %.0 = phi i32 [ 0, %zend_compile_expr.exit ], [ -1, %2 ]
  ret i32 %.0
}